target datalayout = "e-m:e-p270:32:32-p271:32:32-p272:64:64-i64:64-i128:128-f80:128-n8:16:32:64-S128"
target triple = "x86_64-pc-linux-gnu"

%struct.MultibyteCodec_State = type { [8 x i8] }

; Function Attrs: nounwind uwtable
define internal i64 @hz_encode_reset(ptr noundef %0, ptr noundef %1, ptr noundef %2, i64 noundef %3) #0 {
  %5 = alloca i64, align 8
  %6 = alloca ptr, align 8
  %7 = alloca ptr, align 8
  %8 = alloca ptr, align 8
  %9 = alloca i64, align 8
  store ptr %0, ptr %6, align 8, !tbaa !3
  store ptr %1, ptr %7, align 8, !tbaa !21
  store ptr %2, ptr %8, align 8, !tbaa !68
  store i64 %3, ptr %9, align 8, !tbaa !28
  %10 = load ptr, ptr %6, align 8, !tbaa !3
  %11 = getelementptr inbounds nuw %struct.MultibyteCodec_State, ptr %10, i32 0, i32 0
  %12 = getelementptr [8 x i8], ptr %11, i64 0, i64 0
  %13 = load i8, ptr %12, align 1, !tbaa !42
  %14 = zext i8 %13 to i32
  %15 = icmp ne i32 %14, 0
  br i1 %15, label %16, label %45

16:                                               ; preds = %4
  br label %17

17:                                               ; preds = %16
  br label %18

18:                                               ; preds = %17
  %19 = load i64, ptr %9, align 8, !tbaa !28
  %20 = icmp slt i64 %19, 2
  br i1 %20, label %21, label %22

21:                                               ; preds = %18
  store i64 -1, ptr %5, align 8
  br label %46

22:                                               ; preds = %18
  br label %23

23:                                               ; preds = %22
  br label %24

24:                                               ; preds = %23
  %25 = load ptr, ptr %8, align 8, !tbaa !68
  %26 = load ptr, ptr %25, align 8, !tbaa !17
  %27 = getelementptr i8, ptr %26, i64 0
  store i8 126, ptr %27, align 1, !tbaa !42
  br label %28

28:                                               ; preds = %24
  br label %29

29:                                               ; preds = %28
  %30 = load ptr, ptr %8, align 8, !tbaa !68
  %31 = load ptr, ptr %30, align 8, !tbaa !17
  %32 = getelementptr i8, ptr %31, i64 1
  store i8 125, ptr %32, align 1, !tbaa !42
  br label %33

33:                                               ; preds = %29
  br label %34

34:                                               ; preds = %33
  %35 = load ptr, ptr %6, align 8, !tbaa !3
  %36 = getelementptr inbounds nuw %struct.MultibyteCodec_State, ptr %35, i32 0, i32 0
  %37 = getelementptr [8 x i8], ptr %36, i64 0, i64 0
  store i8 0, ptr %37, align 1, !tbaa !42
  br label %38

38:                                               ; preds = %34
  %39 = load ptr, ptr %8, align 8, !tbaa !68
  %40 = load ptr, ptr %39, align 8, !tbaa !17
  %41 = getelementptr i8, ptr %40, i64 2
  store ptr %41, ptr %39, align 8, !tbaa !17
  %42 = load i64, ptr %9, align 8, !tbaa !28
  %43 = sub i64 %42, 2
  store i64 %43, ptr %9, align 8, !tbaa !28
  br label %44

44:                                               ; preds = %38
  br label %45

45:                                               ; preds = %44, %4
  store i64 0, ptr %5, align 8
  br label %46

46:                                               ; preds = %45, %21
  %47 = load i64, ptr %5, align 8
  ret i64 %47
}