; Function Attrs: mustprogress nofree norecurse nosync nounwind willreturn memory(write, argmem: readwrite, inaccessiblemem: none) uwtable
define internal range(i64 -1, 1) i64 @hz_encode_reset(ptr noundef captures(none) %0, ptr readnone captures(none) %1, ptr noundef captures(none) %2, i64 noundef %3) #8 {
  %5 = load i8, ptr %0, align 1, !tbaa !34
  %.not = icmp eq i8 %5, 0
  br i1 %.not, label %14, label %6

6:                                                ; preds = %4
  %7 = icmp slt i64 %3, 2
  br i1 %7, label %14, label %8

8:                                                ; preds = %6
  %9 = load ptr, ptr %2, align 8, !tbaa !37
  store i8 126, ptr %9, align 1, !tbaa !34
  %10 = load ptr, ptr %2, align 8, !tbaa !37
  %11 = getelementptr i8, ptr %10, i64 1
  store i8 125, ptr %11, align 1, !tbaa !34
  store i8 0, ptr %0, align 1, !tbaa !34
  %12 = load ptr, ptr %2, align 8, !tbaa !37
  %13 = getelementptr i8, ptr %12, i64 2
  store ptr %13, ptr %2, align 8, !tbaa !37
  br label %14

14:                                               ; preds = %4, %8, %6
  %.0 = phi i64 [ -1, %6 ], [ 0, %8 ], [ 0, %4 ]
  ret i64 %.0
}